A51 MACRO ASSEMBLER  STOPWATCH                                                            02/24/2025 13:53:49 PAGE     1


MACRO ASSEMBLER A51 V8.2.7.0
OBJECT MODULE PLACED IN .\Objects\stopwatch.obj
ASSEMBLER INVOKED BY: C:\Keil_v5\C51\BIN\A51.EXE stopwatch.asm SET(SMALL) DEBUG PRINT(.\Listings\stopwatch.lst) OBJECT(.
                      \Objects\stopwatch.obj) EP

LOC  OBJ            LINE     SOURCE

0000                   1                 ORG     0000h           
0000 2100              2                 AJMP    MAIN           
                       3     
0013                   4                 ORG     0013h          ; External Interrupt 1 vector
0013 21E7              5                 AJMP    EXT1_ISR           
                       6     
000B                   7                 ORG     000Bh          ; Timer 0 vector
000B 2137              8                 AJMP    Timer0_ISR
                       9     
0100                  10                 ORG     0100h          
0100 758130           11     MAIN:       MOV     SP, #30h       
0103 758901           12                 MOV     TMOD, #01h     ; Timer 0, mode 1 (16-bit)
                      13     
                      14                 ; Initialize stopwatch registers (Bank 0)
0106 C2D3             15                 CLR     RS0            ; Select Bank 0
0108 C2D4             16                 CLR     RS1
010A 7800             17                 MOV     R0, #00h      ; 1/100 second digit
010C 7900             18                 MOV     R1, #00h      ; 1/10 second digit
010E 7A00             19                 MOV     R2, #00h      ; seconds digit
0110 7B00             20                 MOV     R3, #00h      ; 10 seconds digit
0112 7C00             21                 MOV     R4, #00h      ; Display position
0114 7D00             22                 MOV     R5, #00h      ; Counter for 5ms intervals
                      23                 
                      24                 ; Initialize clock registers (Bank 1)
0116 D2D3             25                 SETB    RS0            ; Select Bank 1
0118 7800             26                 MOV     R0, #00h      ; seconds ones
011A 7900             27                 MOV     R1, #00h      ; seconds tens
011C 7A00             28                 MOV     R2, #00h      ; minutes ones
011E 7B00             29                 MOV     R3, #00h      ; minutes tens
                      30                 
                      31                 ; Back to Bank 0
0120 C2D3             32                 CLR     RS0
0122 752000           33                 MOV     20h, #00h     ; Mode (0=Clock, 1=Run, 2=Stop)
                      34                 
                      35                 ; Setup External Interrupt 1
0125 D28A             36                 SETB    IT1           ; Falling edge triggered
0127 D2AA             37                 SETB    EX1           ; Enable INT1
                      38                 
                      39                 ; Timer 0 setup for 5ms
0129 758CEC           40                 MOV     TH0, #0ECh     
012C 758A78           41                 MOV     TL0, #078h
012F D2A9             42                 SETB    ET0           ; Enable Timer 0
0131 D2AF             43                 SETB    EA            ; Enable global interrupts
0133 D28C             44                 SETB    TR0           ; Start Timer 0
                      45     
0135 80FE             46     MainLoop:   SJMP    MainLoop      ; Everything handled by interrupts
                      47     
0137 C0E0             48     Timer0_ISR: PUSH    ACC            
0139 C0D0             49                 PUSH    PSW
                      50     
                      51                 ; Reload timer for next 5ms
013B C28C             52                 CLR     TR0            
013D 758CEC           53                 MOV     TH0, #0ECh     
0140 758A8C           54                 MOV     TL0, #08Ch     
0143 C28D             55                 CLR     TF0            
0145 D28C             56                 SETB    TR0            
                      57     
A51 MACRO ASSEMBLER  STOPWATCH                                                            02/24/2025 13:53:49 PAGE     2

                      58                 ; Update clock every 200 intervals (1 second)
0147 0D               59                 INC     R5            
0148 ED               60                 MOV     A, R5
0149 B4C822           61                 CJNE    A, #0C8h, Update_Stopwatch  ; 200 * 5ms = 1 second
014C 7D00             62                 MOV     R5, #00h     
                      63     
                      64                 ; Switch to Bank 1 for clock update
014E D2D3             65                 SETB    RS0
                      66     
                      67                 ; Update clock seconds ones
0150 08               68                 INC     R0
0151 E8               69                 MOV     A, R0
0152 B40A17           70                 CJNE    A, #0Ah, Switch_Bank_0
0155 7800             71                 MOV     R0, #00h
                      72                 
                      73                 ; Update clock seconds tens
0157 09               74                 INC     R1
0158 E9               75                 MOV     A, R1
0159 B40610           76                 CJNE    A, #06h, Switch_Bank_0
015C 7900             77                 MOV     R1, #00h
                      78                 
                      79                 ; Update clock minutes ones
015E 0A               80                 INC     R2
015F EA               81                 MOV     A, R2
0160 B40A09           82                 CJNE    A, #0Ah, Switch_Bank_0
0163 7A00             83                 MOV     R2, #00h
                      84                 
                      85                 ; Update clock minutes tens
0165 0B               86                 INC     R3
0166 EB               87                 MOV     A, R3
0167 B40602           88                 CJNE    A, #06h, Switch_Bank_0
016A 7B00             89                 MOV     R3, #00h
                      90     
016C                  91     Switch_Bank_0:
016C C2D3             92                 CLR     RS0           ; Switch back to Bank 0
                      93     
016E                  94     Update_Stopwatch:
016E E520             95                 MOV     A, 20h        ; Check mode
0170 B40121           96                 CJNE    A, #01h, Display_Update
                      97     
                      98                 ; Update stopwatch every 2 intervals (10ms)
0173 ED               99                 MOV     A, R5
0174 5401            100                 ANL     A, #01h       ; Check if even number
0176 701C            101                 JNZ     Display_Update
                     102     
                     103                 ; Update stopwatch digits (Bank 0)
0178 08              104                 INC     R0           ; 1/100 seconds
0179 E8              105                 MOV     A, R0
017A B40A17          106                 CJNE    A, #0Ah, Display_Update
017D 7800            107                 MOV     R0, #00h
                     108                 
017F 09              109                 INC     R1           ; 1/10 seconds
0180 E9              110                 MOV     A, R1
0181 B40A10          111                 CJNE    A, #0Ah, Display_Update
0184 7900            112                 MOV     R1, #00h
                     113                 
0186 0A              114                 INC     R2           ; Seconds
0187 EA              115                 MOV     A, R2
0188 B40A09          116                 CJNE    A, #0Ah, Display_Update
018B 7A00            117                 MOV     R2, #00h
                     118                 
018D 0B              119                 INC     R3           ; 10 seconds
018E EB              120                 MOV     A, R3
018F B40602          121                 CJNE    A, #06h, Display_Update
0192 7B00            122                 MOV     R3, #00h
                     123     
A51 MACRO ASSEMBLER  STOPWATCH                                                            02/24/2025 13:53:49 PAGE     3

0194                 124     Display_Update:
                     125                 ; Select display based on mode
0194 E520            126                 MOV     A, 20h
0196 7026            127                 JNZ     Show_Stopwatch
                     128     
0198 EC              129     Show_Clock: MOV     A, R4          
0199 D2D3            130                 SETB    RS0           ; Switch to Bank 1
019B B40005          131                 CJNE    A, #00h, Clock_Pos1
019E EB              132                 MOV     A, R3         ; Minutes tens
019F C2D3            133                 CLR     RS0           ; Back to Bank 0
01A1 8035            134                 SJMP    Output_Digit
                     135     
01A3 B40107          136     Clock_Pos1: CJNE    A, #01h, Clock_Pos2
01A6 EA              137                 MOV     A, R2         ; Minutes ones
01A7 C2D3            138                 CLR     RS0
01A9 4410            139                 ORL     A, #10h        
01AB 802B            140                 SJMP    Output_Digit
                     141     
01AD B40207          142     Clock_Pos2: CJNE    A, #02h, Clock_Pos3
01B0 E9              143                 MOV     A, R1         ; Seconds tens
01B1 C2D3            144                 CLR     RS0
01B3 4420            145                 ORL     A, #20h        
01B5 8021            146                 SJMP    Output_Digit
                     147     
01B7 E8              148     Clock_Pos3: MOV     A, R0         ; Seconds ones
01B8 C2D3            149                 CLR     RS0
01BA 4430            150                 ORL     A, #30h        
01BC 801A            151                 SJMP    Output_Digit
                     152     
01BE                 153     Show_Stopwatch:
01BE EC              154                 MOV     A, R4          
01BF B40003          155                 CJNE    A, #00h, Stop_Pos1
01C2 EB              156                 MOV     A, R3         ; 10 seconds
01C3 8013            157                 SJMP    Output_Digit
                     158     
01C5 B40105          159     Stop_Pos1:  CJNE    A, #01h, Stop_Pos2
01C8 EA              160                 MOV     A, R2         ; Seconds
01C9 4410            161                 ORL     A, #10h        
01CB 800B            162                 SJMP    Output_Digit
                     163     
01CD B40205          164     Stop_Pos2:  CJNE    A, #02h, Stop_Pos3
01D0 E9              165                 MOV     A, R1         ; 1/10 second
01D1 4420            166                 ORL     A, #20h        
01D3 8003            167                 SJMP    Output_Digit
                     168     
01D5 E8              169     Stop_Pos3:  MOV     A, R0         ; 1/100 second
01D6 4430            170                 ORL     A, #30h        
                     171     
01D8                 172     Output_Digit:
01D8 F590            173                 MOV     P1, A          
                     174     
                     175                 ; Update display position
01DA EC              176                 MOV     A, R4
01DB 04              177                 INC     A              
01DC B40402          178                 CJNE    A, #04h, Save_Pos
01DF 7400            179                 MOV     A, #00h        
01E1 FC              180     Save_Pos:   MOV     R4, A         
                     181     
01E2 D0D0            182                 POP     PSW            
01E4 D0E0            183                 POP     ACC
01E6 32              184                 RETI
                     185     
01E7 C0E0            186     EXT1_ISR:   PUSH    ACC
01E9 C0D0            187                 PUSH    PSW
                     188                 
01EB E520            189                 MOV     A, 20h        ; Get current mode
A51 MACRO ASSEMBLER  STOPWATCH                                                            02/24/2025 13:53:49 PAGE     4

01ED 04              190                 INC     A             ; Next mode
01EE B40302          191                 CJNE    A, #03h, Save_Mode
01F1 7400            192                 MOV     A, #00h       ; Wrap to mode 0
01F3 F520            193     Save_Mode:  MOV     20h, A        ; Save new mode
                     194                 
01F5 D0D0            195                 POP     PSW
01F7 D0E0            196                 POP     ACC
01F9 32              197                 RETI
                     198     
                     199                 END
A51 MACRO ASSEMBLER  STOPWATCH                                                            02/24/2025 13:53:49 PAGE     5

SYMBOL TABLE LISTING
------ ----- -------


N A M E             T Y P E  V A L U E   ATTRIBUTES

ACC. . . . . . . .  D ADDR   00E0H   A   
CLOCK_POS1 . . . .  C ADDR   01A3H   A   
CLOCK_POS2 . . . .  C ADDR   01ADH   A   
CLOCK_POS3 . . . .  C ADDR   01B7H   A   
DISPLAY_UPDATE . .  C ADDR   0194H   A   
EA . . . . . . . .  B ADDR   00A8H.7 A   
ET0. . . . . . . .  B ADDR   00A8H.1 A   
EX1. . . . . . . .  B ADDR   00A8H.2 A   
EXT1_ISR . . . . .  C ADDR   01E7H   A   
IT1. . . . . . . .  B ADDR   0088H.2 A   
MAIN . . . . . . .  C ADDR   0100H   A   
MAINLOOP . . . . .  C ADDR   0135H   A   
OUTPUT_DIGIT . . .  C ADDR   01D8H   A   
P1 . . . . . . . .  D ADDR   0090H   A   
PSW. . . . . . . .  D ADDR   00D0H   A   
RS0. . . . . . . .  B ADDR   00D0H.3 A   
RS1. . . . . . . .  B ADDR   00D0H.4 A   
SAVE_MODE. . . . .  C ADDR   01F3H   A   
SAVE_POS . . . . .  C ADDR   01E1H   A   
SHOW_CLOCK . . . .  C ADDR   0198H   A   
SHOW_STOPWATCH . .  C ADDR   01BEH   A   
SP . . . . . . . .  D ADDR   0081H   A   
STOP_POS1. . . . .  C ADDR   01C5H   A   
STOP_POS2. . . . .  C ADDR   01CDH   A   
STOP_POS3. . . . .  C ADDR   01D5H   A   
SWITCH_BANK_0. . .  C ADDR   016CH   A   
TF0. . . . . . . .  B ADDR   0088H.5 A   
TH0. . . . . . . .  D ADDR   008CH   A   
TIMER0_ISR . . . .  C ADDR   0137H   A   
TL0. . . . . . . .  D ADDR   008AH   A   
TMOD . . . . . . .  D ADDR   0089H   A   
TR0. . . . . . . .  B ADDR   0088H.4 A   
UPDATE_STOPWATCH .  C ADDR   016EH   A   


REGISTER BANK(S) USED: 0 


ASSEMBLY COMPLETE.  0 WARNING(S), 0 ERROR(S)
